#include <math.h>
#include <stdio.h>
#include <stdlib.h>
#include <string.h>


void main()
{
	int year[12]={31,28,31,30,31,30,31,31,30,31,30,31};
	int w;
	int i,j=0,k=0;
	scanf("%d",&w);
	for(i=0;i<365;i++)
	{
		j++;
		if(j>year[k])
		{
			j-=year[k];
			k++;
		}
		if((i+w)%7==5 && j==13) printf("%d\n",k+1);
	}
	

}