; ModuleID = 'source-C-CXX/49/189.c'
source_filename = "source-C-CXX/49/189.c"
target datalayout = "e-m:e-p270:32:32-p271:32:32-p272:64:64-i64:64-f80:128-n8:16:32:64-S128"
target triple = "x86_64-pc-linux-gnu"

@__const.main.year = private unnamed_addr constant [12 x i32] [i32 31, i32 28, i32 31, i32 30, i32 31, i32 30, i32 31, i32 31, i32 30, i32 31, i32 30, i32 31], align 16
@.str = private unnamed_addr constant [3 x i8] c"%d\00", align 1
@.str.1 = private unnamed_addr constant [4 x i8] c"%d\0A\00", align 1

; Function Attrs: nofree nounwind sspstrong uwtable
define dso_local void @main() local_unnamed_addr #0 {
  %1 = alloca i32, align 4
  %2 = bitcast i32* %1 to i8*
  call void @llvm.lifetime.start.p0i8(i64 4, i8* nonnull %2) #3
  %3 = call i32 (i8*, ...) @__isoc99_scanf(i8* getelementptr inbounds ([3 x i8], [3 x i8]* @.str, i64 0, i64 0), i32* nonnull %1)
  br label %4

4:                                                ; preds = %0, %27
  %5 = phi i32 [ 0, %0 ], [ %17, %27 ]
  %6 = phi i32 [ 0, %0 ], [ %14, %27 ]
  %7 = phi i32 [ 0, %0 ], [ %28, %27 ]
  %8 = add nsw i32 %6, 1
  %9 = zext i32 %5 to i64
  %10 = getelementptr inbounds [12 x i32], [12 x i32]* @__const.main.year, i64 0, i64 %9
  %11 = load i32, i32* %10, align 4, !tbaa !5
  %12 = icmp slt i32 %6, %11
  %13 = select i1 %12, i32 0, i32 %11
  %14 = sub i32 %8, %13
  %15 = xor i1 %12, true
  %16 = zext i1 %15 to i32
  %17 = add nuw nsw i32 %5, %16
  %18 = load i32, i32* %1, align 4, !tbaa !5
  %19 = add nsw i32 %18, %7
  %20 = srem i32 %19, 7
  %21 = icmp eq i32 %20, 5
  %22 = icmp eq i32 %14, 13
  %23 = select i1 %21, i1 %22, i1 false
  br i1 %23, label %24, label %27

24:                                               ; preds = %4
  %25 = add nuw nsw i32 %17, 1
  %26 = call i32 (i8*, ...) @printf(i8* nonnull dereferenceable(1) getelementptr inbounds ([4 x i8], [4 x i8]* @.str.1, i64 0, i64 0), i32 %25)
  br label %27

27:                                               ; preds = %4, %24
  %28 = add nuw nsw i32 %7, 1
  %29 = icmp eq i32 %28, 365
  br i1 %29, label %30, label %4, !llvm.loop !9

30:                                               ; preds = %27
  call void @llvm.lifetime.end.p0i8(i64 4, i8* nonnull %2) #3
  ret void
}

; Function Attrs: argmemonly mustprogress nofree nosync nounwind willreturn
declare void @llvm.lifetime.start.p0i8(i64 immarg, i8* nocapture) #1

; Function Attrs: nofree nounwind
declare noundef i32 @__isoc99_scanf(i8* nocapture noundef readonly, ...) local_unnamed_addr #2

; Function Attrs: nofree nounwind
declare noundef i32 @printf(i8* nocapture noundef readonly, ...) local_unnamed_addr #2

; Function Attrs: argmemonly mustprogress nofree nosync nounwind willreturn
declare void @llvm.lifetime.end.p0i8(i64 immarg, i8* nocapture) #1


!llvm.module.flags = !{!0, !1, !2, !3}
!llvm.ident = !{!4}

!0 = !{i32 1, !"wchar_size", i32 4}
!1 = !{i32 7, !"PIC Level", i32 2}
!2 = !{i32 7, !"PIE Level", i32 2}
!3 = !{i32 7, !"uwtable", i32 1}
!4 = !{!"clang version 13.0.0"}
!5 = !{!6, !6, i64 0}
!6 = !{!"int", !7, i64 0}
!7 = !{!"omnipotent char", !8, i64 0}
!8 = !{!"Simple C/C++ TBAA"}
!9 = distinct !{!9, !10}
!10 = !{!"llvm.loop.mustprogress"}
